; Function Attrs: mustprogress nounwind uwtable
define void @_ZN7glslang7TShader21setResourceSetBindingERKSt6vectorINSt7__cxx1112basic_stringIcSt11char_traitsIcESaIcEEESaIS7_EE(ptr noundef nonnull readonly align 8 captures(none) dereferenceable(165) %0, ptr noundef nonnull align 8 dereferenceable(24) %1) local_unnamed_addr #3 align 2 {
  %3 = getelementptr inbounds nuw i8, ptr %0, i64 32
  %4 = load ptr, ptr %3, align 8
  %5 = getelementptr inbounds nuw i8, ptr %4, i64 1208
  %6 = tail call noundef nonnull align 8 dereferenceable(24) ptr @_ZNSt6vectorINSt7__cxx1112basic_stringIcSt11char_traitsIcESaIcEEESaIS5_EEaSERKS7_(ptr noundef nonnull align 8 dereferenceable(24) %5, ptr noundef nonnull align 8 dereferenceable(24) %1)
  %7 = getelementptr inbounds nuw i8, ptr %1, i64 8
  %8 = load ptr, ptr %7, align 8
  %9 = load ptr, ptr %1, align 8
  %.not.i = icmp eq ptr %8, %9
  br i1 %.not.i, label %_ZN7glslang13TIntermediate21setResourceSetBindingERKSt6vectorINSt7__cxx1112basic_stringIcSt11char_traitsIcESaIcEEESaIS7_EE.exit, label %10

10:                                               ; preds = %2
  %11 = getelementptr inbounds nuw i8, ptr %4, i64 2000
  tail call void @_ZN7glslang10TProcesses10addProcessEPKc(ptr noundef nonnull align 8 dereferenceable(24) %11, ptr noundef nonnull @.str.71)
  %12 = load ptr, ptr %7, align 8
  %13 = load ptr, ptr %1, align 8
  %14 = ptrtoint ptr %12 to i64
  %15 = ptrtoint ptr %13 to i64
  %16 = sub i64 %14, %15
  %17 = lshr exact i64 %16, 5
  %18 = trunc i64 %17 to i32
  %19 = icmp sgt i32 %18, 0
  br i1 %19, label %.lr.ph.i, label %_ZN7glslang13TIntermediate21setResourceSetBindingERKSt6vectorINSt7__cxx1112basic_stringIcSt11char_traitsIcESaIcEEESaIS7_EE.exit

.lr.ph.i:                                         ; preds = %10
  %20 = getelementptr inbounds nuw i8, ptr %4, i64 2008
  br label %21

21:                                               ; preds = %21, %.lr.ph.i
  %indvars.iv.i = phi i64 [ 0, %.lr.ph.i ], [ %indvars.iv.next.i, %21 ]
  %22 = phi ptr [ %13, %.lr.ph.i ], [ %31, %21 ]
  %23 = getelementptr inbounds nuw %"class.std::__cxx11::basic_string", ptr %22, i64 %indvars.iv.i
  %24 = load ptr, ptr %20, align 8
  %25 = getelementptr inbounds i8, ptr %24, i64 -32
  %26 = tail call noundef nonnull align 8 dereferenceable(32) ptr @_ZNSt7__cxx1112basic_stringIcSt11char_traitsIcESaIcEE6appendEPKc(ptr noundef nonnull align 8 dereferenceable(32) %25, ptr noundef nonnull @.str.47) #24
  %27 = load ptr, ptr %20, align 8
  %28 = getelementptr inbounds i8, ptr %27, i64 -32
  %29 = tail call noundef nonnull align 8 dereferenceable(32) ptr @_ZNSt7__cxx1112basic_stringIcSt11char_traitsIcESaIcEE6appendERKS4_(ptr noundef nonnull align 8 dereferenceable(32) %28, ptr noundef nonnull align 8 dereferenceable(32) %23) #24
  %indvars.iv.next.i = add nuw nsw i64 %indvars.iv.i, 1
  %30 = load ptr, ptr %7, align 8
  %31 = load ptr, ptr %1, align 8
  %32 = ptrtoint ptr %30 to i64
  %33 = ptrtoint ptr %31 to i64
  %34 = sub i64 %32, %33
  %sext.i = shl i64 %34, 27
  %35 = ashr i64 %sext.i, 32
  %36 = icmp slt i64 %indvars.iv.next.i, %35
  br i1 %36, label %21, label %_ZN7glslang13TIntermediate21setResourceSetBindingERKSt6vectorINSt7__cxx1112basic_stringIcSt11char_traitsIcESaIcEEESaIS7_EE.exit, !llvm.loop !30

_ZN7glslang13TIntermediate21setResourceSetBindingERKSt6vectorINSt7__cxx1112basic_stringIcSt11char_traitsIcESaIcEEESaIS7_EE.exit: ; preds = %21, %2, %10
  ret void
}